target datalayout = "e-m:e-p270:32:32-p271:32:32-p272:64:64-i64:64-i128:128-f80:128-n8:16:32:64-S128"
target triple = "x86_64-pc-linux-gnu"

%struct.H5C_class_t = type { i32, ptr, i32, i32, ptr, ptr, ptr, ptr, ptr, ptr, ptr, ptr, ptr, ptr }
%struct.H5G_node_t = type { %struct.H5C_cache_entry_t, i64, i32, ptr }
%struct.H5C_cache_entry_t = type { ptr, i64, i64, ptr, i8, ptr, i8, i8, i8, i8, i32, i8, i8, i8, i8, i8, i32, ptr, i32, i32, i32, i32, i32, i8, i8, ptr, ptr, ptr, ptr, ptr, ptr, i8, i32, i8, i64, ptr, i64, i64, i32, i8, i32, i32, i8, ptr, ptr, ptr }
%struct.H5G_entry_t = type { i32, %union.H5G_cache_t, i64, i64 }
%union.H5G_cache_t = type { %struct.anon }
%struct.anon = type { i64, i64 }
%struct.H5G_bt_it_idx_common_t = type { i64, i64, ptr }

@H5G_init_g = external global i8, align 1
@H5_libterm_g = external global i8, align 1
@H5AC_SNODE = external constant [1 x %struct.H5C_class_t], align 16
@.str.2 = private unnamed_addr constant [101 x i8] c"generated/home/dtcxzyw/WorkSpace/Projects/compilers/llvm-opt-benchmark/bench/hdf5/hdf5/src/H5Gnode.c\00", align 1
@H5E_SYM_g = external global i64, align 8
@H5E_CANTPROTECT_g = external global i64, align 8
@.str.3 = private unnamed_addr constant [33 x i8] c"unable to load symbol table node\00", align 1
@H5E_CANTUNPROTECT_g = external global i64, align 8
@.str.7 = private unnamed_addr constant [32 x i8] c"unable to release object header\00", align 1
@__func__.H5G__node_by_idx = private unnamed_addr constant [17 x i8] c"H5G__node_by_idx\00", align 1
@H5E_CANTGET_g = external global i64, align 8
@.str.8 = private unnamed_addr constant [27 x i8] c"'by index' callback failed\00", align 1

; Function Attrs: nounwind uwtable
define i32 @H5G__node_by_idx(ptr noundef %0, ptr noundef %1, i64 noundef %2, ptr noundef %3, ptr noundef %4) #0 {
  %6 = alloca i32, align 4
  %7 = alloca ptr, align 8
  %8 = alloca ptr, align 8
  %9 = alloca i64, align 8
  %10 = alloca ptr, align 8
  %11 = alloca ptr, align 8
  %12 = alloca ptr, align 8
  %13 = alloca ptr, align 8
  %14 = alloca i32, align 4
  %15 = alloca i8, align 1
  %16 = alloca i64, align 8
  %17 = alloca i32, align 4
  store ptr %0, ptr %7, align 8, !tbaa !3
  store ptr %1, ptr %8, align 8, !tbaa !8
  store i64 %2, ptr %9, align 8, !tbaa !21
  store ptr %3, ptr %10, align 8, !tbaa !8
  store ptr %4, ptr %11, align 8, !tbaa !8
  call void @llvm.lifetime.start.p0(i64 8, ptr %12) #8
  %18 = load ptr, ptr %11, align 8, !tbaa !8
  store ptr %18, ptr %12, align 8, !tbaa !112
  call void @llvm.lifetime.start.p0(i64 8, ptr %13) #8
  store ptr null, ptr %13, align 8, !tbaa !19
  call void @llvm.lifetime.start.p0(i64 4, ptr %14) #8
  store i32 0, ptr %14, align 4, !tbaa !13
  call void @llvm.lifetime.start.p0(i64 1, ptr %15) #8
  store i8 0, ptr %15, align 1, !tbaa !9
  %19 = load i8, ptr @H5G_init_g, align 1, !tbaa !9, !range !11, !noundef !12
  %20 = trunc i8 %19 to i1
  br i1 %20, label %25, label %21

21:                                               ; preds = %5
  %22 = load i8, ptr @H5_libterm_g, align 1, !tbaa !9, !range !11, !noundef !12
  %23 = trunc i8 %22 to i1
  %24 = xor i1 %23, true
  br label %25

25:                                               ; preds = %21, %5
  %26 = phi i1 [ true, %5 ], [ %24, %21 ]
  %27 = xor i1 %26, true
  %28 = xor i1 %27, true
  %29 = zext i1 %28 to i32
  %30 = sext i32 %29 to i64
  %31 = call i64 @llvm.expect.i64(i64 %30, i64 1)
  %32 = icmp ne i64 %31, 0
  br i1 %32, label %33, label %157

33:                                               ; preds = %25
  %34 = load ptr, ptr %7, align 8, !tbaa !3
  %35 = load i64, ptr %9, align 8, !tbaa !21
  %36 = load ptr, ptr %7, align 8, !tbaa !3
  %37 = call ptr @H5AC_protect(ptr noundef %34, ptr noundef @H5AC_SNODE, i64 noundef %35, ptr noundef %36, i32 noundef 128)
  store ptr %37, ptr %13, align 8, !tbaa !19
  %38 = icmp eq ptr null, %37
  br i1 %38, label %39, label %58

39:                                               ; preds = %33
  br label %40

40:                                               ; preds = %39
  br label %41

41:                                               ; preds = %40
  br label %42

42:                                               ; preds = %41
  %43 = load i64, ptr @H5E_SYM_g, align 8, !tbaa !21
  %44 = load i64, ptr @H5E_CANTPROTECT_g, align 8, !tbaa !21
  %45 = call i32 (ptr, ptr, i32, i64, i64, ptr, ...) @H5E_printf_stack(ptr noundef @.str.2, ptr noundef @__func__.H5G__node_by_idx, i32 noundef 1030, i64 noundef %43, i64 noundef %44, ptr noundef @.str.3)
  br label %46

46:                                               ; preds = %42
  br label %47

47:                                               ; preds = %46
  store i8 1, ptr %15, align 1, !tbaa !9
  %48 = load i8, ptr %15, align 1, !tbaa !9, !range !11, !noundef !12
  %49 = trunc i8 %48 to i1
  %50 = zext i1 %49 to i8
  store i8 %50, ptr %15, align 1, !tbaa !9
  br label %51

51:                                               ; preds = %47
  br label %52

52:                                               ; preds = %51
  br label %53

53:                                               ; preds = %52
  store i32 -1, ptr %14, align 4, !tbaa !13
  br label %131

54:                                               ; No predecessors!
  br label %55

55:                                               ; preds = %54
  br label %56

56:                                               ; preds = %55
  br label %57

57:                                               ; preds = %56
  br label %58

58:                                               ; preds = %57, %33
  %59 = load ptr, ptr %12, align 8, !tbaa !112
  %60 = getelementptr inbounds nuw %struct.H5G_bt_it_idx_common_t, ptr %59, i32 0, i32 0
  %61 = load i64, ptr %60, align 8, !tbaa !114
  %62 = load ptr, ptr %12, align 8, !tbaa !112
  %63 = getelementptr inbounds nuw %struct.H5G_bt_it_idx_common_t, ptr %62, i32 0, i32 1
  %64 = load i64, ptr %63, align 8, !tbaa !116
  %65 = icmp uge i64 %61, %64
  br i1 %65, label %66, label %121

66:                                               ; preds = %58
  %67 = load ptr, ptr %12, align 8, !tbaa !112
  %68 = getelementptr inbounds nuw %struct.H5G_bt_it_idx_common_t, ptr %67, i32 0, i32 0
  %69 = load i64, ptr %68, align 8, !tbaa !114
  %70 = load ptr, ptr %12, align 8, !tbaa !112
  %71 = getelementptr inbounds nuw %struct.H5G_bt_it_idx_common_t, ptr %70, i32 0, i32 1
  %72 = load i64, ptr %71, align 8, !tbaa !116
  %73 = load ptr, ptr %13, align 8, !tbaa !19
  %74 = getelementptr inbounds nuw %struct.H5G_node_t, ptr %73, i32 0, i32 2
  %75 = load i32, ptr %74, align 8, !tbaa !48
  %76 = zext i32 %75 to i64
  %77 = add i64 %72, %76
  %78 = icmp ult i64 %69, %77
  br i1 %78, label %79, label %121

79:                                               ; preds = %66
  call void @llvm.lifetime.start.p0(i64 8, ptr %16) #8
  %80 = load ptr, ptr %12, align 8, !tbaa !112
  %81 = getelementptr inbounds nuw %struct.H5G_bt_it_idx_common_t, ptr %80, i32 0, i32 0
  %82 = load i64, ptr %81, align 8, !tbaa !114
  %83 = load ptr, ptr %12, align 8, !tbaa !112
  %84 = getelementptr inbounds nuw %struct.H5G_bt_it_idx_common_t, ptr %83, i32 0, i32 1
  %85 = load i64, ptr %84, align 8, !tbaa !116
  %86 = sub i64 %82, %85
  store i64 %86, ptr %16, align 8, !tbaa !21
  %87 = load ptr, ptr %12, align 8, !tbaa !112
  %88 = getelementptr inbounds nuw %struct.H5G_bt_it_idx_common_t, ptr %87, i32 0, i32 2
  %89 = load ptr, ptr %88, align 8, !tbaa !117
  %90 = load ptr, ptr %13, align 8, !tbaa !19
  %91 = getelementptr inbounds nuw %struct.H5G_node_t, ptr %90, i32 0, i32 3
  %92 = load ptr, ptr %91, align 8, !tbaa !32
  %93 = load i64, ptr %16, align 8, !tbaa !21
  %94 = getelementptr inbounds nuw %struct.H5G_entry_t, ptr %92, i64 %93
  %95 = load ptr, ptr %12, align 8, !tbaa !112
  %96 = call i32 %89(ptr noundef %94, ptr noundef %95)
  %97 = icmp slt i32 %96, 0
  br i1 %97, label %98, label %117

98:                                               ; preds = %79
  br label %99

99:                                               ; preds = %98
  br label %100

100:                                              ; preds = %99
  br label %101

101:                                              ; preds = %100
  %102 = load i64, ptr @H5E_SYM_g, align 8, !tbaa !21
  %103 = load i64, ptr @H5E_CANTGET_g, align 8, !tbaa !21
  %104 = call i32 (ptr, ptr, i32, i64, i64, ptr, ...) @H5E_printf_stack(ptr noundef @.str.2, ptr noundef @__func__.H5G__node_by_idx, i32 noundef 1042, i64 noundef %102, i64 noundef %103, ptr noundef @.str.8)
  br label %105

105:                                              ; preds = %101
  br label %106

106:                                              ; preds = %105
  store i8 1, ptr %15, align 1, !tbaa !9
  %107 = load i8, ptr %15, align 1, !tbaa !9, !range !11, !noundef !12
  %108 = trunc i8 %107 to i1
  %109 = zext i1 %108 to i8
  store i8 %109, ptr %15, align 1, !tbaa !9
  br label %110

110:                                              ; preds = %106
  br label %111

111:                                              ; preds = %110
  br label %112

112:                                              ; preds = %111
  store i32 -1, ptr %14, align 4, !tbaa !13
  store i32 10, ptr %17, align 4
  br label %118

113:                                              ; No predecessors!
  br label %114

114:                                              ; preds = %113
  br label %115

115:                                              ; preds = %114
  br label %116

116:                                              ; preds = %115
  br label %117

117:                                              ; preds = %116, %79
  store i32 1, ptr %14, align 4, !tbaa !13
  store i32 0, ptr %17, align 4
  br label %118

118:                                              ; preds = %112, %117
  call void @llvm.lifetime.end.p0(i64 8, ptr %16) #8
  %119 = load i32, ptr %17, align 4
  switch i32 %119, label %159 [
    i32 0, label %120
    i32 10, label %131
  ]

120:                                              ; preds = %118
  br label %130

121:                                              ; preds = %66, %58
  %122 = load ptr, ptr %13, align 8, !tbaa !19
  %123 = getelementptr inbounds nuw %struct.H5G_node_t, ptr %122, i32 0, i32 2
  %124 = load i32, ptr %123, align 8, !tbaa !48
  %125 = zext i32 %124 to i64
  %126 = load ptr, ptr %12, align 8, !tbaa !112
  %127 = getelementptr inbounds nuw %struct.H5G_bt_it_idx_common_t, ptr %126, i32 0, i32 1
  %128 = load i64, ptr %127, align 8, !tbaa !116
  %129 = add i64 %128, %125
  store i64 %129, ptr %127, align 8, !tbaa !116
  br label %130

130:                                              ; preds = %121, %120
  br label %131

131:                                              ; preds = %130, %118, %53
  %132 = load ptr, ptr %13, align 8, !tbaa !19
  %133 = icmp ne ptr %132, null
  br i1 %133, label %134, label %156

134:                                              ; preds = %131
  %135 = load ptr, ptr %7, align 8, !tbaa !3
  %136 = load i64, ptr %9, align 8, !tbaa !21
  %137 = load ptr, ptr %13, align 8, !tbaa !19
  %138 = call i32 @H5AC_unprotect(ptr noundef %135, ptr noundef @H5AC_SNODE, i64 noundef %136, ptr noundef %137, i32 noundef 0)
  %139 = icmp slt i32 %138, 0
  br i1 %139, label %140, label %156

140:                                              ; preds = %134
  br label %141

141:                                              ; preds = %140
  br label %142

142:                                              ; preds = %141
  br label %143

143:                                              ; preds = %142
  %144 = load i64, ptr @H5E_SYM_g, align 8, !tbaa !21
  %145 = load i64, ptr @H5E_CANTUNPROTECT_g, align 8, !tbaa !21
  %146 = call i32 (ptr, ptr, i32, i64, i64, ptr, ...) @H5E_printf_stack(ptr noundef @.str.2, ptr noundef @__func__.H5G__node_by_idx, i32 noundef 1052, i64 noundef %144, i64 noundef %145, ptr noundef @.str.7)
  br label %147

147:                                              ; preds = %143
  br label %148

148:                                              ; preds = %147
  store i8 1, ptr %15, align 1, !tbaa !9
  %149 = load i8, ptr %15, align 1, !tbaa !9, !range !11, !noundef !12
  %150 = trunc i8 %149 to i1
  %151 = zext i1 %150 to i8
  store i8 %151, ptr %15, align 1, !tbaa !9
  br label %152

152:                                              ; preds = %148
  br label %153

153:                                              ; preds = %152
  store i32 -1, ptr %14, align 4, !tbaa !13
  br label %154

154:                                              ; preds = %153
  br label %155

155:                                              ; preds = %154
  br label %156

156:                                              ; preds = %155, %134, %131
  br label %157

157:                                              ; preds = %156, %25
  %158 = load i32, ptr %14, align 4, !tbaa !13
  store i32 %158, ptr %6, align 4
  store i32 1, ptr %17, align 4
  br label %159

159:                                              ; preds = %157, %118
  call void @llvm.lifetime.end.p0(i64 1, ptr %15) #8
  call void @llvm.lifetime.end.p0(i64 4, ptr %14) #8
  call void @llvm.lifetime.end.p0(i64 8, ptr %13) #8
  call void @llvm.lifetime.end.p0(i64 8, ptr %12) #8
  %160 = load i32, ptr %6, align 4
  ret i32 %160
}