; Function Attrs: nounwind uwtable
define range(i32 -1, 2) i32 @H5G__node_by_idx(ptr noundef %0, ptr noundef readnone captures(none) %1, i64 noundef %2, ptr noundef readnone captures(none) %3, ptr noundef %4) local_unnamed_addr #0 {
  %6 = load i8, ptr @H5G_init_g, align 1, !tbaa !3, !range !7, !noundef !8
  %7 = trunc nuw i8 %6 to i1
  %8 = load i8, ptr @H5_libterm_g, align 1, !range !7
  %9 = trunc nuw i8 %8 to i1
  %10 = xor i1 %9, true
  %11 = select i1 %7, i1 true, i1 %10
  br i1 %11, label %12, label %44, !prof !9

12:                                               ; preds = %5
  %13 = tail call ptr @H5AC_protect(ptr noundef %0, ptr noundef nonnull @H5AC_SNODE, i64 noundef %2, ptr noundef %0, i32 noundef 128) #9
  %14 = icmp eq ptr %13, null
  br i1 %14, label %33, label %15

15:                                               ; preds = %12
  %16 = load i64, ptr %4, align 8, !tbaa !86
  %17 = getelementptr inbounds nuw i8, ptr %4, i64 8
  %18 = load i64, ptr %17, align 8, !tbaa !88
  %.not = icmp uge i64 %16, %18
  %.phi.trans.insert = getelementptr inbounds nuw i8, ptr %13, i64 256
  %.pre = load i32, ptr %.phi.trans.insert, align 8, !tbaa !33
  %.pre35 = zext i32 %.pre to i64
  %.pre36 = add i64 %18, %.pre35
  %19 = icmp ult i64 %16, %.pre36
  %or.cond = select i1 %.not, i1 %19, i1 false
  br i1 %or.cond, label %20, label %._crit_edge

20:                                               ; preds = %15
  %21 = sub nuw i64 %16, %18
  %22 = getelementptr inbounds nuw i8, ptr %4, i64 16
  %23 = load ptr, ptr %22, align 8, !tbaa !89
  %24 = getelementptr inbounds nuw i8, ptr %13, i64 264
  %25 = load ptr, ptr %24, align 8, !tbaa !24
  %26 = getelementptr inbounds nuw %struct.H5G_entry_t, ptr %25, i64 %21
  %27 = tail call i32 %23(ptr noundef %26, ptr noundef nonnull %4) #9
  %28 = icmp slt i32 %27, 0
  br i1 %28, label %29, label %37

29:                                               ; preds = %20
  %30 = load i64, ptr @H5E_SYM_g, align 8, !tbaa !10
  %31 = load i64, ptr @H5E_CANTGET_g, align 8, !tbaa !10
  %32 = tail call i32 (ptr, ptr, i32, i64, i64, ptr, ...) @H5E_printf_stack(ptr noundef nonnull @.str.2, ptr noundef nonnull @__func__.H5G__node_by_idx, i32 noundef 1042, i64 noundef %30, i64 noundef %31, ptr noundef nonnull @.str.8) #9
  br label %37

._crit_edge:                                      ; preds = %15
  store i64 %.pre36, ptr %17, align 8, !tbaa !88
  br label %37

33:                                               ; preds = %12
  %34 = load i64, ptr @H5E_SYM_g, align 8, !tbaa !10
  %35 = load i64, ptr @H5E_CANTPROTECT_g, align 8, !tbaa !10
  %36 = tail call i32 (ptr, ptr, i32, i64, i64, ptr, ...) @H5E_printf_stack(ptr noundef nonnull @.str.2, ptr noundef nonnull @__func__.H5G__node_by_idx, i32 noundef 1030, i64 noundef %34, i64 noundef %35, ptr noundef nonnull @.str.3) #9
  br label %44

37:                                               ; preds = %29, %20, %._crit_edge
  %.1.ph = phi i32 [ 1, %20 ], [ -1, %29 ], [ 0, %._crit_edge ]
  %38 = tail call i32 @H5AC_unprotect(ptr noundef %0, ptr noundef nonnull @H5AC_SNODE, i64 noundef %2, ptr noundef nonnull %13, i32 noundef 0) #9
  %39 = icmp slt i32 %38, 0
  br i1 %39, label %40, label %44

40:                                               ; preds = %37
  %41 = load i64, ptr @H5E_SYM_g, align 8, !tbaa !10
  %42 = load i64, ptr @H5E_CANTUNPROTECT_g, align 8, !tbaa !10
  %43 = tail call i32 (ptr, ptr, i32, i64, i64, ptr, ...) @H5E_printf_stack(ptr noundef nonnull @.str.2, ptr noundef nonnull @__func__.H5G__node_by_idx, i32 noundef 1052, i64 noundef %41, i64 noundef %42, ptr noundef nonnull @.str.7) #9
  br label %44

44:                                               ; preds = %33, %5, %40, %37
  %.026 = phi i32 [ -1, %40 ], [ %.1.ph, %37 ], [ -1, %33 ], [ 0, %5 ]
  ret i32 %.026
}